target datalayout = "e-m:e-p270:32:32-p271:32:32-p272:64:64-i64:64-i128:128-f80:128-n8:16:32:64-S128"
target triple = "x86_64-pc-linux-gnu"

%struct.libdeflate_options = type { i64, ptr, ptr }
%struct.libdeflate_decompressor = type { %union.anon, [402 x i32], [288 x i16], i8, i32, ptr }
%union.anon = type { [2342 x i32] }

@libdeflate_default_malloc_func = external global ptr, align 8
@libdeflate_default_free_func = external global ptr, align 8

; Function Attrs: nounwind uwtable
define ptr @libdeflate_alloc_decompressor_ex(ptr noundef %0) #0 {
  %2 = alloca ptr, align 8
  %3 = alloca ptr, align 8
  %4 = alloca ptr, align 8
  %5 = alloca i32, align 4
  store ptr %0, ptr %3, align 8, !tbaa !14
  call void @llvm.lifetime.start.p0(i64 8, ptr %4) #10
  %6 = load ptr, ptr %3, align 8, !tbaa !14
  %7 = getelementptr inbounds nuw %struct.libdeflate_options, ptr %6, i32 0, i32 0
  %8 = load i64, ptr %7, align 8, !tbaa !16
  %9 = icmp ne i64 %8, 24
  br i1 %9, label %10, label %11

10:                                               ; preds = %1
  store ptr null, ptr %2, align 8
  store i32 1, ptr %5, align 4
  br label %45

11:                                               ; preds = %1
  %12 = load ptr, ptr %3, align 8, !tbaa !14
  %13 = getelementptr inbounds nuw %struct.libdeflate_options, ptr %12, i32 0, i32 1
  %14 = load ptr, ptr %13, align 8, !tbaa !18
  %15 = icmp ne ptr %14, null
  br i1 %15, label %16, label %20

16:                                               ; preds = %11
  %17 = load ptr, ptr %3, align 8, !tbaa !14
  %18 = getelementptr inbounds nuw %struct.libdeflate_options, ptr %17, i32 0, i32 1
  %19 = load ptr, ptr %18, align 8, !tbaa !18
  br label %22

20:                                               ; preds = %11
  %21 = load ptr, ptr @libdeflate_default_malloc_func, align 8, !tbaa !9
  br label %22

22:                                               ; preds = %20, %16
  %23 = phi ptr [ %19, %16 ], [ %21, %20 ]
  %24 = call ptr %23(i64 noundef 11568)
  store ptr %24, ptr %4, align 8, !tbaa !4
  %25 = load ptr, ptr %4, align 8, !tbaa !4
  %26 = icmp eq ptr %25, null
  br i1 %26, label %27, label %28

27:                                               ; preds = %22
  store ptr null, ptr %2, align 8
  store i32 1, ptr %5, align 4
  br label %45

28:                                               ; preds = %22
  %29 = load ptr, ptr %4, align 8, !tbaa !4
  call void @llvm.memset.p0.i64(ptr align 8 %29, i8 0, i64 11568, i1 false)
  %30 = load ptr, ptr %3, align 8, !tbaa !14
  %31 = getelementptr inbounds nuw %struct.libdeflate_options, ptr %30, i32 0, i32 2
  %32 = load ptr, ptr %31, align 8, !tbaa !19
  %33 = icmp ne ptr %32, null
  br i1 %33, label %34, label %38

34:                                               ; preds = %28
  %35 = load ptr, ptr %3, align 8, !tbaa !14
  %36 = getelementptr inbounds nuw %struct.libdeflate_options, ptr %35, i32 0, i32 2
  %37 = load ptr, ptr %36, align 8, !tbaa !19
  br label %40

38:                                               ; preds = %28
  %39 = load ptr, ptr @libdeflate_default_free_func, align 8, !tbaa !9
  br label %40

40:                                               ; preds = %38, %34
  %41 = phi ptr [ %37, %34 ], [ %39, %38 ]
  %42 = load ptr, ptr %4, align 8, !tbaa !4
  %43 = getelementptr inbounds nuw %struct.libdeflate_decompressor, ptr %42, i32 0, i32 5
  store ptr %41, ptr %43, align 8, !tbaa !20
  %44 = load ptr, ptr %4, align 8, !tbaa !4
  store ptr %44, ptr %2, align 8
  store i32 1, ptr %5, align 4
  br label %45

45:                                               ; preds = %40, %27, %10
  call void @llvm.lifetime.end.p0(i64 8, ptr %4) #10
  %46 = load ptr, ptr %2, align 8
  ret ptr %46
}