; Function Attrs: nounwind uwtable
define ptr @libdeflate_alloc_decompressor_ex(ptr noundef readonly captures(none) %0) local_unnamed_addr #0 {
  %2 = load i64, ptr %0, align 8, !tbaa !8
  %.not = icmp eq i64 %2, 24
  br i1 %.not, label %3, label %16

3:                                                ; preds = %1
  %4 = getelementptr inbounds nuw i8, ptr %0, i64 8
  %5 = load ptr, ptr %4, align 8, !tbaa !11
  %.not13 = icmp eq ptr %5, null
  %6 = load ptr, ptr @libdeflate_default_malloc_func, align 8
  %7 = select i1 %.not13, ptr %6, ptr %5
  %8 = tail call ptr %7(i64 noundef 11568) #10
  %9 = icmp eq ptr %8, null
  br i1 %9, label %16, label %10

10:                                               ; preds = %3
  tail call void @llvm.memset.p0.i64(ptr noundef nonnull align 8 dereferenceable(11568) %8, i8 0, i64 11568, i1 false)
  %11 = getelementptr inbounds nuw i8, ptr %0, i64 16
  %12 = load ptr, ptr %11, align 8, !tbaa !12
  %.not14 = icmp eq ptr %12, null
  %13 = load ptr, ptr @libdeflate_default_free_func, align 8
  %14 = select i1 %.not14, ptr %13, ptr %12
  %15 = getelementptr inbounds nuw i8, ptr %8, i64 11560
  store ptr %14, ptr %15, align 8, !tbaa !13
  br label %16

16:                                               ; preds = %3, %1, %10
  %.0 = phi ptr [ %8, %10 ], [ null, %1 ], [ null, %3 ]
  ret ptr %.0
}